; Function Attrs: nounwind uwtable
define ptr @l_Lean_Meta_reduceBinNatPred(ptr noundef %0, ptr noundef %1, ptr noundef %2, ptr noundef %3, ptr noundef %4, ptr noundef %5, ptr noundef %6, ptr noundef %7) local_unnamed_addr #1 {
  %9 = tail call zeroext i8 @l_Lean_Expr_hasExprMVar(ptr noundef %1) #5
  %10 = icmp eq i8 %9, 0
  br i1 %10, label %11, label %86

11:                                               ; preds = %8
  %12 = tail call zeroext i8 @l_Lean_Expr_hasFVar(ptr noundef %1) #5
  %13 = icmp eq i8 %12, 0
  br i1 %13, label %14, label %16

14:                                               ; preds = %11
  %15 = tail call ptr @l_Lean_Meta_reduceBinNatPred___lambda__6(ptr noundef %1, ptr noundef %2, ptr noundef %0, ptr nonnull poison, ptr noundef %3, ptr noundef %4, ptr noundef %5, ptr noundef %6, ptr noundef %7)
  br label %88

16:                                               ; preds = %11
  %17 = ptrtoint ptr %6 to i64
  %18 = and i64 %17, 1
  %.not = icmp eq i64 %18, 0
  br i1 %.not, label %19, label %lean_dec.exit41

19:                                               ; preds = %16
  %20 = load i32, ptr %6, align 4, !tbaa !4
  %21 = icmp sgt i32 %20, 1
  br i1 %21, label %22, label %24, !prof !11

22:                                               ; preds = %19
  %23 = add nsw i32 %20, -1
  store i32 %23, ptr %6, align 4, !tbaa !4
  br label %lean_dec.exit41

24:                                               ; preds = %19
  %.not.i = icmp eq i32 %20, 0
  br i1 %.not.i, label %lean_dec.exit41, label %25

25:                                               ; preds = %24
  tail call void @lean_dec_ref_cold(ptr noundef nonnull %6) #5
  br label %lean_dec.exit41

lean_dec.exit41:                                  ; preds = %25, %24, %22, %16
  %26 = ptrtoint ptr %5 to i64
  %27 = and i64 %26, 1
  %.not54 = icmp eq i64 %27, 0
  br i1 %.not54, label %28, label %lean_dec.exit40

28:                                               ; preds = %lean_dec.exit41
  %29 = load i32, ptr %5, align 4, !tbaa !4
  %30 = icmp sgt i32 %29, 1
  br i1 %30, label %31, label %33, !prof !11

31:                                               ; preds = %28
  %32 = add nsw i32 %29, -1
  store i32 %32, ptr %5, align 4, !tbaa !4
  br label %lean_dec.exit40

33:                                               ; preds = %28
  %.not.i42 = icmp eq i32 %29, 0
  br i1 %.not.i42, label %lean_dec.exit40, label %34

34:                                               ; preds = %33
  tail call void @lean_dec_ref_cold(ptr noundef nonnull %5) #5
  br label %lean_dec.exit40

lean_dec.exit40:                                  ; preds = %34, %33, %31, %lean_dec.exit41
  %35 = ptrtoint ptr %4 to i64
  %36 = and i64 %35, 1
  %.not55 = icmp eq i64 %36, 0
  br i1 %.not55, label %37, label %lean_dec.exit39

37:                                               ; preds = %lean_dec.exit40
  %38 = load i32, ptr %4, align 4, !tbaa !4
  %39 = icmp sgt i32 %38, 1
  br i1 %39, label %40, label %42, !prof !11

40:                                               ; preds = %37
  %41 = add nsw i32 %38, -1
  store i32 %41, ptr %4, align 4, !tbaa !4
  br label %lean_dec.exit39

42:                                               ; preds = %37
  %.not.i44 = icmp eq i32 %38, 0
  br i1 %.not.i44, label %lean_dec.exit39, label %43

43:                                               ; preds = %42
  tail call void @lean_dec_ref_cold(ptr noundef nonnull %4) #5
  br label %lean_dec.exit39

lean_dec.exit39:                                  ; preds = %43, %42, %40, %lean_dec.exit40
  %44 = ptrtoint ptr %3 to i64
  %45 = and i64 %44, 1
  %.not56 = icmp eq i64 %45, 0
  br i1 %.not56, label %46, label %lean_dec.exit38

46:                                               ; preds = %lean_dec.exit39
  %47 = load i32, ptr %3, align 4, !tbaa !4
  %48 = icmp sgt i32 %47, 1
  br i1 %48, label %49, label %51, !prof !11

49:                                               ; preds = %46
  %50 = add nsw i32 %47, -1
  store i32 %50, ptr %3, align 4, !tbaa !4
  br label %lean_dec.exit38

51:                                               ; preds = %46
  %.not.i46 = icmp eq i32 %47, 0
  br i1 %.not.i46, label %lean_dec.exit38, label %52

52:                                               ; preds = %51
  tail call void @lean_dec_ref_cold(ptr noundef nonnull %3) #5
  br label %lean_dec.exit38

lean_dec.exit38:                                  ; preds = %52, %51, %49, %lean_dec.exit39
  %53 = ptrtoint ptr %2 to i64
  %54 = and i64 %53, 1
  %.not57 = icmp eq i64 %54, 0
  br i1 %.not57, label %55, label %lean_dec.exit37

55:                                               ; preds = %lean_dec.exit38
  %56 = load i32, ptr %2, align 4, !tbaa !4
  %57 = icmp sgt i32 %56, 1
  br i1 %57, label %58, label %60, !prof !11

58:                                               ; preds = %55
  %59 = add nsw i32 %56, -1
  store i32 %59, ptr %2, align 4, !tbaa !4
  br label %lean_dec.exit37

60:                                               ; preds = %55
  %.not.i48 = icmp eq i32 %56, 0
  br i1 %.not.i48, label %lean_dec.exit37, label %61

61:                                               ; preds = %60
  tail call void @lean_dec_ref_cold(ptr noundef nonnull %2) #5
  br label %lean_dec.exit37

lean_dec.exit37:                                  ; preds = %61, %60, %58, %lean_dec.exit38
  %62 = ptrtoint ptr %1 to i64
  %63 = and i64 %62, 1
  %.not58 = icmp eq i64 %63, 0
  br i1 %.not58, label %64, label %lean_dec.exit36

64:                                               ; preds = %lean_dec.exit37
  %65 = load i32, ptr %1, align 4, !tbaa !4
  %66 = icmp sgt i32 %65, 1
  br i1 %66, label %67, label %69, !prof !11

67:                                               ; preds = %64
  %68 = add nsw i32 %65, -1
  store i32 %68, ptr %1, align 4, !tbaa !4
  br label %lean_dec.exit36

69:                                               ; preds = %64
  %.not.i50 = icmp eq i32 %65, 0
  br i1 %.not.i50, label %lean_dec.exit36, label %70

70:                                               ; preds = %69
  tail call void @lean_dec_ref_cold(ptr noundef nonnull %1) #5
  br label %lean_dec.exit36

lean_dec.exit36:                                  ; preds = %70, %69, %67, %lean_dec.exit37
  %71 = ptrtoint ptr %0 to i64
  %72 = and i64 %71, 1
  %.not59 = icmp eq i64 %72, 0
  br i1 %.not59, label %73, label %lean_dec.exit

73:                                               ; preds = %lean_dec.exit36
  %74 = load i32, ptr %0, align 4, !tbaa !4
  %75 = icmp sgt i32 %74, 1
  br i1 %75, label %76, label %78, !prof !11

76:                                               ; preds = %73
  %77 = add nsw i32 %74, -1
  store i32 %77, ptr %0, align 4, !tbaa !4
  br label %lean_dec.exit

78:                                               ; preds = %73
  %.not.i52 = icmp eq i32 %74, 0
  br i1 %.not.i52, label %lean_dec.exit, label %79

79:                                               ; preds = %78
  tail call void @lean_dec_ref_cold(ptr noundef nonnull %0) #5
  br label %lean_dec.exit

lean_dec.exit:                                    ; preds = %79, %78, %76, %lean_dec.exit36
  tail call void @lean_inc_heartbeat() #5
  %80 = tail call noalias ptr @mi_malloc_small(i64 noundef 24) #5
  %81 = icmp eq ptr %80, null
  br i1 %81, label %82, label %lean_alloc_ctor.exit

82:                                               ; preds = %lean_dec.exit
  tail call void @lean_internal_panic_out_of_memory() #4
  unreachable

lean_alloc_ctor.exit:                             ; preds = %lean_dec.exit
  %83 = getelementptr inbounds nuw i8, ptr %80, i64 4
  store i32 1, ptr %80, align 4, !tbaa !4
  store i32 131096, ptr %83, align 4
  %84 = getelementptr inbounds nuw i8, ptr %80, i64 8
  store ptr inttoptr (i64 1 to ptr), ptr %84, align 8, !tbaa !12
  %85 = getelementptr inbounds nuw i8, ptr %80, i64 16
  store ptr %7, ptr %85, align 8, !tbaa !12
  br label %88

86:                                               ; preds = %8
  %87 = tail call ptr @l_Lean_Meta_reduceBinNatPred___lambda__6(ptr noundef %1, ptr noundef %2, ptr noundef %0, ptr nonnull poison, ptr noundef %3, ptr noundef %4, ptr noundef %5, ptr noundef %6, ptr noundef %7)
  br label %88

88:                                               ; preds = %14, %lean_alloc_ctor.exit, %86
  %.1 = phi ptr [ %87, %86 ], [ %15, %14 ], [ %80, %lean_alloc_ctor.exit ]
  ret ptr %.1
}